target datalayout = "e-m:e-p270:32:32-p271:32:32-p272:64:64-i64:64-i128:128-f80:128-n8:16:32:64-S128"
target triple = "x86_64-unknown-linux-gnu"

%struct.GraphicHwOps = type { ptr, ptr, ptr, i8, ptr, ptr, ptr }
%struct.VirtIOGPUBase = type { %struct.VirtIODevice, ptr, %struct.virtio_gpu_base_conf, %struct.virtio_gpu_config, ptr, i32, i32, %struct.MemoryRegion, [16 x %struct.virtio_gpu_scanout], i32, [16 x %struct.virtio_gpu_requested_state] }
%struct.VirtIODevice = type { %struct.DeviceState, ptr, i8, i8, i16, i64, i64, i64, i64, ptr, i16, i32, i32, ptr, %struct.MemoryListener, i16, i8, i8, i8, i8, i8, i8, i8, i8, i8, ptr, ptr, i8, i8, ptr, ptr, %union.anon.1, %struct.EventNotifier, i8 }
%struct.DeviceState = type { %struct.Object, ptr, ptr, i8, i8, i64, ptr, i32, i8, ptr, %struct.NamedGPIOListHead, %struct.NamedClockListHead, %struct.BusStateHead, i32, i32, i32, %struct.ResettableState, ptr, %struct.MemReentrancyGuard }
%struct.Object = type { ptr, ptr, ptr, i32, ptr }
%struct.NamedGPIOListHead = type { ptr }
%struct.NamedClockListHead = type { ptr }
%struct.BusStateHead = type { ptr }
%struct.ResettableState = type { i32, i8, i8 }
%struct.MemReentrancyGuard = type { i8 }
%struct.MemoryListener = type { ptr, ptr, ptr, ptr, ptr, ptr, ptr, ptr, ptr, ptr, ptr, ptr, ptr, ptr, ptr, ptr, ptr, i32, ptr, ptr, %union.anon, %union.anon.0 }
%union.anon = type { %struct.QTailQLink }
%struct.QTailQLink = type { ptr, ptr }
%union.anon.0 = type { %struct.QTailQLink }
%union.anon.1 = type { %struct.QTailQLink }
%struct.EventNotifier = type { i32, i32, i8 }
%struct.virtio_gpu_base_conf = type { i32, i32, i32, i32, i64 }
%struct.virtio_gpu_config = type { i32, i32, i32, i32 }
%struct.MemoryRegion = type { %struct.Object, i8, i8, i8, i8, i8, i8, i8, i8, i8, i8, ptr, ptr, ptr, ptr, ptr, ptr, i32, i128, i64, ptr, i64, i8, i8, i8, i8, i8, ptr, i64, i32, %union.anon.2, %union.anon.3, %union.anon.4, ptr, i32, ptr, ptr, i8 }
%union.anon.2 = type { %struct.QTailQLink }
%union.anon.3 = type { %struct.QTailQLink }
%union.anon.4 = type { %struct.QTailQLink }
%struct.virtio_gpu_scanout = type { ptr, ptr, i32, i32, i32, i32, i32, i32, %struct.virtio_gpu_update_cursor, ptr }
%struct.virtio_gpu_update_cursor = type { %struct.virtio_gpu_ctrl_hdr, %struct.virtio_gpu_cursor_pos, i32, i32, i32, i32 }
%struct.virtio_gpu_ctrl_hdr = type { i32, i32, i64, i32, i8, [3 x i8] }
%struct.virtio_gpu_cursor_pos = type { i32, i32, i32, i32 }
%struct.virtio_gpu_requested_state = type { i16, i16, i32, i32, i32, i32, i32 }

@.str = private unnamed_addr constant [37 x i8] c"../qemu/hw/display/virtio-gpu-base.c\00", align 1
@__func__.virtio_gpu_base_device_realize = private unnamed_addr constant [31 x i8] c"virtio_gpu_base_device_realize\00", align 1
@.str.1 = private unnamed_addr constant [25 x i8] c"invalid max_outputs > %d\00", align 1
@.str.2 = private unnamed_addr constant [28 x i8] c"virgl is not yet migratable\00", align 1
@virtio_gpu_ops = internal constant %struct.GraphicHwOps { ptr @virtio_gpu_get_flags, ptr @virtio_gpu_invalidate_display, ptr @virtio_gpu_update_display, i8 0, ptr @virtio_gpu_text_update, ptr @virtio_gpu_ui_info, ptr @virtio_gpu_gl_block }, align 8
@.str.3 = private unnamed_addr constant [14 x i8] c"virtio-device\00", align 1
@.str.4 = private unnamed_addr constant [105 x i8] c"/home/dtcxzyw/WorkSpace/Projects/compilers/llvm-opt-benchmark/bench/qemu/qemu/include/hw/virtio/virtio.h\00", align 1
@__func__.VIRTIO_DEVICE = private unnamed_addr constant [14 x i8] c"VIRTIO_DEVICE\00", align 1
@.str.5 = private unnamed_addr constant [16 x i8] c"virtio-gpu-base\00", align 1
@.str.6 = private unnamed_addr constant [109 x i8] c"/home/dtcxzyw/WorkSpace/Projects/compilers/llvm-opt-benchmark/bench/qemu/qemu/include/hw/virtio/virtio-gpu.h\00", align 1
@__func__.VIRTIO_GPU_BASE = private unnamed_addr constant [16 x i8] c"VIRTIO_GPU_BASE\00", align 1
@.str.8 = private unnamed_addr constant [7 x i8] c"device\00", align 1
@.str.9 = private unnamed_addr constant [101 x i8] c"/home/dtcxzyw/WorkSpace/Projects/compilers/llvm-opt-benchmark/bench/qemu/qemu/include/hw/qdev-core.h\00", align 1
@__func__.DEVICE = private unnamed_addr constant [7 x i8] c"DEVICE\00", align 1

; Function Attrs: nounwind sspstrong uwtable
define internal ptr @DEVICE(ptr noundef %obj) #0 {
entry:
  %obj.addr = alloca ptr, align 8
  store ptr %obj, ptr %obj.addr, align 8
  %0 = load ptr, ptr %obj.addr, align 8
  %call = call ptr @object_dynamic_cast_assert(ptr noundef %0, ptr noundef @.str.8, ptr noundef @.str.9, i32 noundef 77, ptr noundef @__func__.DEVICE)
  ret ptr %call
}

; Function Attrs: nounwind sspstrong uwtable
define internal i32 @cpu_to_le32(i32 noundef %v) #0 {
entry:
  %v.addr = alloca i32, align 4
  store i32 %v, ptr %v.addr, align 4
  %0 = load i32, ptr %v.addr, align 4
  ret i32 %0
}

; Function Attrs: nounwind sspstrong uwtable
define internal ptr @VIRTIO_GPU_BASE(ptr noundef %obj) #0 {
entry:
  %obj.addr = alloca ptr, align 8
  store ptr %obj, ptr %obj.addr, align 8
  %0 = load ptr, ptr %obj.addr, align 8
  %call = call ptr @object_dynamic_cast_assert(ptr noundef %0, ptr noundef @.str.5, ptr noundef @.str.6, i32 noundef 30, ptr noundef @__func__.VIRTIO_GPU_BASE)
  ret ptr %call
}

; Function Attrs: nounwind sspstrong uwtable
define internal ptr @VIRTIO_DEVICE(ptr noundef %obj) #0 {
entry:
  %obj.addr = alloca ptr, align 8
  store ptr %obj, ptr %obj.addr, align 8
  %0 = load ptr, ptr %obj.addr, align 8
  %call = call ptr @object_dynamic_cast_assert(ptr noundef %0, ptr noundef @.str.3, ptr noundef @.str.4, i32 noundef 85, ptr noundef @__func__.VIRTIO_DEVICE)
  ret ptr %call
}

; Function Attrs: nounwind sspstrong uwtable
define dso_local zeroext i1 @virtio_gpu_base_device_realize(ptr noundef %qdev, ptr noundef %ctrl_cb, ptr noundef %cursor_cb, ptr noundef %errp) #0 {
entry:
  %retval = alloca i1, align 1
  %qdev.addr = alloca ptr, align 8
  %ctrl_cb.addr = alloca ptr, align 8
  %cursor_cb.addr = alloca ptr, align 8
  %errp.addr = alloca ptr, align 8
  %vdev = alloca ptr, align 8
  %g = alloca ptr, align 8
  %i = alloca i32, align 4
  store ptr %qdev, ptr %qdev.addr, align 8
  store ptr %ctrl_cb, ptr %ctrl_cb.addr, align 8
  store ptr %cursor_cb, ptr %cursor_cb.addr, align 8
  store ptr %errp, ptr %errp.addr, align 8
  %0 = load ptr, ptr %qdev.addr, align 8
  %call = call ptr @VIRTIO_DEVICE(ptr noundef %0)
  store ptr %call, ptr %vdev, align 8
  %1 = load ptr, ptr %qdev.addr, align 8
  %call1 = call ptr @VIRTIO_GPU_BASE(ptr noundef %1)
  store ptr %call1, ptr %g, align 8
  %2 = load ptr, ptr %g, align 8
  %conf = getelementptr inbounds %struct.VirtIOGPUBase, ptr %2, i32 0, i32 2
  %max_outputs = getelementptr inbounds %struct.virtio_gpu_base_conf, ptr %conf, i32 0, i32 0
  %3 = load i32, ptr %max_outputs, align 16
  %cmp = icmp ugt i32 %3, 16
  br i1 %cmp, label %if.then, label %if.end

if.then:                                          ; preds = %entry
  %4 = load ptr, ptr %errp.addr, align 8
  call void (ptr, ptr, i32, ptr, ptr, ...) @error_setg_internal(ptr noundef %4, ptr noundef @.str, i32 noundef 181, ptr noundef @__func__.virtio_gpu_base_device_realize, ptr noundef @.str.1, i32 noundef 16)
  store i1 false, ptr %retval, align 1
  br label %return

if.end:                                           ; preds = %entry
  %5 = load ptr, ptr %g, align 8
  %conf2 = getelementptr inbounds %struct.VirtIOGPUBase, ptr %5, i32 0, i32 2
  %flags = getelementptr inbounds %struct.virtio_gpu_base_conf, ptr %conf2, i32 0, i32 1
  %6 = load i32, ptr %flags, align 4
  %and = and i32 %6, 2
  %tobool = icmp ne i32 %and, 0
  br i1 %tobool, label %if.then3, label %if.end9

if.then3:                                         ; preds = %if.end
  %7 = load ptr, ptr %g, align 8
  %migration_blocker = getelementptr inbounds %struct.VirtIOGPUBase, ptr %7, i32 0, i32 1
  call void (ptr, ptr, i32, ptr, ptr, ...) @error_setg_internal(ptr noundef %migration_blocker, ptr noundef @.str, i32 noundef 186, ptr noundef @__func__.virtio_gpu_base_device_realize, ptr noundef @.str.2)
  %8 = load ptr, ptr %g, align 8
  %migration_blocker4 = getelementptr inbounds %struct.VirtIOGPUBase, ptr %8, i32 0, i32 1
  %9 = load ptr, ptr %errp.addr, align 8
  %call5 = call i32 @migrate_add_blocker(ptr noundef %migration_blocker4, ptr noundef %9)
  %cmp6 = icmp slt i32 %call5, 0
  br i1 %cmp6, label %if.then7, label %if.end8

if.then7:                                         ; preds = %if.then3
  store i1 false, ptr %retval, align 1
  br label %return

if.end8:                                          ; preds = %if.then3
  br label %if.end9

if.end9:                                          ; preds = %if.end8, %if.end
  %10 = load ptr, ptr %g, align 8
  %conf10 = getelementptr inbounds %struct.VirtIOGPUBase, ptr %10, i32 0, i32 2
  %max_outputs11 = getelementptr inbounds %struct.virtio_gpu_base_conf, ptr %conf10, i32 0, i32 0
  %11 = load i32, ptr %max_outputs11, align 16
  %call12 = call i32 @cpu_to_le32(i32 noundef %11)
  %12 = load ptr, ptr %g, align 8
  %virtio_config = getelementptr inbounds %struct.VirtIOGPUBase, ptr %12, i32 0, i32 3
  %num_scanouts = getelementptr inbounds %struct.virtio_gpu_config, ptr %virtio_config, i32 0, i32 2
  store i32 %call12, ptr %num_scanouts, align 8
  %13 = load ptr, ptr %g, align 8
  %call13 = call ptr @VIRTIO_DEVICE(ptr noundef %13)
  call void @virtio_init(ptr noundef %call13, i16 noundef zeroext 16, i64 noundef 16)
  %14 = load ptr, ptr %g, align 8
  %conf14 = getelementptr inbounds %struct.VirtIOGPUBase, ptr %14, i32 0, i32 2
  %flags15 = getelementptr inbounds %struct.virtio_gpu_base_conf, ptr %conf14, i32 0, i32 1
  %15 = load i32, ptr %flags15, align 4
  %and16 = and i32 %15, 2
  %tobool17 = icmp ne i32 %and16, 0
  br i1 %tobool17, label %if.then18, label %if.else

if.then18:                                        ; preds = %if.end9
  %16 = load ptr, ptr %vdev, align 8
  %17 = load ptr, ptr %ctrl_cb.addr, align 8
  %call19 = call ptr @virtio_add_queue(ptr noundef %16, i32 noundef 256, ptr noundef %17)
  %18 = load ptr, ptr %vdev, align 8
  %19 = load ptr, ptr %cursor_cb.addr, align 8
  %call20 = call ptr @virtio_add_queue(ptr noundef %18, i32 noundef 16, ptr noundef %19)
  br label %if.end23

if.else:                                          ; preds = %if.end9
  %20 = load ptr, ptr %vdev, align 8
  %21 = load ptr, ptr %ctrl_cb.addr, align 8
  %call21 = call ptr @virtio_add_queue(ptr noundef %20, i32 noundef 64, ptr noundef %21)
  %22 = load ptr, ptr %vdev, align 8
  %23 = load ptr, ptr %cursor_cb.addr, align 8
  %call22 = call ptr @virtio_add_queue(ptr noundef %22, i32 noundef 16, ptr noundef %23)
  br label %if.end23

if.end23:                                         ; preds = %if.else, %if.then18
  %24 = load ptr, ptr %g, align 8
  %enabled_output_bitmask = getelementptr inbounds %struct.VirtIOGPUBase, ptr %24, i32 0, i32 9
  store i32 1, ptr %enabled_output_bitmask, align 16
  %25 = load ptr, ptr %g, align 8
  %conf24 = getelementptr inbounds %struct.VirtIOGPUBase, ptr %25, i32 0, i32 2
  %xres = getelementptr inbounds %struct.virtio_gpu_base_conf, ptr %conf24, i32 0, i32 2
  %26 = load i32, ptr %xres, align 8
  %27 = load ptr, ptr %g, align 8
  %req_state = getelementptr inbounds %struct.VirtIOGPUBase, ptr %27, i32 0, i32 10
  %arrayidx = getelementptr [16 x %struct.virtio_gpu_requested_state], ptr %req_state, i64 0, i64 0
  %width = getelementptr inbounds %struct.virtio_gpu_requested_state, ptr %arrayidx, i32 0, i32 2
  store i32 %26, ptr %width, align 4
  %28 = load ptr, ptr %g, align 8
  %conf25 = getelementptr inbounds %struct.VirtIOGPUBase, ptr %28, i32 0, i32 2
  %yres = getelementptr inbounds %struct.virtio_gpu_base_conf, ptr %conf25, i32 0, i32 3
  %29 = load i32, ptr %yres, align 4
  %30 = load ptr, ptr %g, align 8
  %req_state26 = getelementptr inbounds %struct.VirtIOGPUBase, ptr %30, i32 0, i32 10
  %arrayidx27 = getelementptr [16 x %struct.virtio_gpu_requested_state], ptr %req_state26, i64 0, i64 0
  %height = getelementptr inbounds %struct.virtio_gpu_requested_state, ptr %arrayidx27, i32 0, i32 3
  store i32 %29, ptr %height, align 4
  %31 = load ptr, ptr %g, align 8
  %hw_ops = getelementptr inbounds %struct.VirtIOGPUBase, ptr %31, i32 0, i32 4
  store ptr @virtio_gpu_ops, ptr %hw_ops, align 8
  store i32 0, ptr %i, align 4
  br label %for.cond

for.cond:                                         ; preds = %for.inc, %if.end23
  %32 = load i32, ptr %i, align 4
  %33 = load ptr, ptr %g, align 8
  %conf28 = getelementptr inbounds %struct.VirtIOGPUBase, ptr %33, i32 0, i32 2
  %max_outputs29 = getelementptr inbounds %struct.virtio_gpu_base_conf, ptr %conf28, i32 0, i32 0
  %34 = load i32, ptr %max_outputs29, align 16
  %cmp30 = icmp ult i32 %32, %34
  br i1 %cmp30, label %for.body, label %for.end

for.body:                                         ; preds = %for.cond
  %35 = load ptr, ptr %g, align 8
  %call31 = call ptr @DEVICE(ptr noundef %35)
  %36 = load i32, ptr %i, align 4
  %37 = load ptr, ptr %g, align 8
  %call32 = call ptr @graphic_console_init(ptr noundef %call31, i32 noundef %36, ptr noundef @virtio_gpu_ops, ptr noundef %37)
  %38 = load ptr, ptr %g, align 8
  %scanout = getelementptr inbounds %struct.VirtIOGPUBase, ptr %38, i32 0, i32 8
  %39 = load i32, ptr %i, align 4
  %idxprom = sext i32 %39 to i64
  %arrayidx33 = getelementptr [16 x %struct.virtio_gpu_scanout], ptr %scanout, i64 0, i64 %idxprom
  %con = getelementptr inbounds %struct.virtio_gpu_scanout, ptr %arrayidx33, i32 0, i32 0
  store ptr %call32, ptr %con, align 8
  br label %for.inc

for.inc:                                          ; preds = %for.body
  %40 = load i32, ptr %i, align 4
  %inc = add i32 %40, 1
  store i32 %inc, ptr %i, align 4
  br label %for.cond, !llvm.loop !8

for.end:                                          ; preds = %for.cond
  store i1 true, ptr %retval, align 1
  br label %return

return:                                           ; preds = %for.end, %if.then7, %if.then
  %41 = load i1, ptr %retval, align 1
  ret i1 %41
}