; Function Attrs: nounwind sspstrong uwtable
define dso_local noundef zeroext i1 @virtio_gpu_base_device_realize(ptr noundef %qdev, ptr noundef %ctrl_cb, ptr noundef %cursor_cb, ptr noundef %errp) local_unnamed_addr #1 {
entry:
  %call.i = tail call ptr @object_dynamic_cast_assert(ptr noundef %qdev, ptr noundef nonnull @.str.3, ptr noundef nonnull @.str.4, i32 noundef 85, ptr noundef nonnull @__func__.VIRTIO_DEVICE) #9
  %call.i28 = tail call ptr @object_dynamic_cast_assert(ptr noundef %qdev, ptr noundef nonnull @.str.5, ptr noundef nonnull @.str.6, i32 noundef 30, ptr noundef nonnull @__func__.VIRTIO_GPU_BASE) #9
  %conf = getelementptr inbounds nuw i8, ptr %call.i28, i64 528
  %0 = load i32, ptr %conf, align 16
  %cmp = icmp ugt i32 %0, 16
  br i1 %cmp, label %if.then, label %if.end

if.then:                                          ; preds = %entry
  tail call void (ptr, ptr, i32, ptr, ptr, ...) @error_setg_internal(ptr noundef %errp, ptr noundef nonnull @.str, i32 noundef 181, ptr noundef nonnull @__func__.virtio_gpu_base_device_realize, ptr noundef nonnull @.str.1, i32 noundef 16) #9
  br label %return

if.end:                                           ; preds = %entry
  %flags = getelementptr inbounds nuw i8, ptr %call.i28, i64 532
  %1 = load i32, ptr %flags, align 4
  %and = and i32 %1, 2
  %tobool.not = icmp eq i32 %and, 0
  br i1 %tobool.not, label %if.end9, label %if.then3

if.then3:                                         ; preds = %if.end
  %migration_blocker = getelementptr inbounds nuw i8, ptr %call.i28, i64 520
  tail call void (ptr, ptr, i32, ptr, ptr, ...) @error_setg_internal(ptr noundef nonnull %migration_blocker, ptr noundef nonnull @.str, i32 noundef 186, ptr noundef nonnull @__func__.virtio_gpu_base_device_realize, ptr noundef nonnull @.str.2) #9
  %call5 = tail call i32 @migrate_add_blocker(ptr noundef nonnull %migration_blocker, ptr noundef %errp) #9
  %cmp6 = icmp slt i32 %call5, 0
  br i1 %cmp6, label %return, label %if.then3.if.end9_crit_edge

if.then3.if.end9_crit_edge:                       ; preds = %if.then3
  %.pre = load i32, ptr %conf, align 16
  br label %if.end9

if.end9:                                          ; preds = %if.then3.if.end9_crit_edge, %if.end
  %2 = phi i32 [ %.pre, %if.then3.if.end9_crit_edge ], [ %0, %if.end ]
  %num_scanouts = getelementptr inbounds nuw i8, ptr %call.i28, i64 560
  store i32 %2, ptr %num_scanouts, align 8
  %call.i29 = tail call ptr @object_dynamic_cast_assert(ptr noundef nonnull %call.i28, ptr noundef nonnull @.str.3, ptr noundef nonnull @.str.4, i32 noundef 85, ptr noundef nonnull @__func__.VIRTIO_DEVICE) #9
  tail call void @virtio_init(ptr noundef %call.i29, i16 noundef zeroext 16, i64 noundef 16) #9
  %3 = load i32, ptr %flags, align 4
  %and16 = and i32 %3, 2
  %tobool17.not = icmp eq i32 %and16, 0
  %. = select i1 %tobool17.not, i32 64, i32 256
  %call21 = tail call ptr @virtio_add_queue(ptr noundef %call.i, i32 noundef %., ptr noundef %ctrl_cb) #9
  %call22 = tail call ptr @virtio_add_queue(ptr noundef %call.i, i32 noundef 16, ptr noundef %cursor_cb) #9
  %enabled_output_bitmask = getelementptr inbounds nuw i8, ptr %call.i28, i64 2528
  store i32 1, ptr %enabled_output_bitmask, align 16
  %xres = getelementptr inbounds nuw i8, ptr %call.i28, i64 536
  %4 = load i32, ptr %xres, align 8
  %width = getelementptr inbounds nuw i8, ptr %call.i28, i64 2536
  store i32 %4, ptr %width, align 4
  %yres = getelementptr inbounds nuw i8, ptr %call.i28, i64 540
  %5 = load i32, ptr %yres, align 4
  %height = getelementptr inbounds nuw i8, ptr %call.i28, i64 2540
  store i32 %5, ptr %height, align 4
  %hw_ops = getelementptr inbounds nuw i8, ptr %call.i28, i64 568
  store ptr @virtio_gpu_ops, ptr %hw_ops, align 8
  %6 = load i32, ptr %conf, align 16
  %cmp3031.not = icmp eq i32 %6, 0
  br i1 %cmp3031.not, label %return, label %for.body.lr.ph

for.body.lr.ph:                                   ; preds = %if.end9
  %scanout = getelementptr inbounds nuw i8, ptr %call.i28, i64 864
  br label %for.body

for.body:                                         ; preds = %for.body.lr.ph, %for.body
  %i.032 = phi i32 [ 0, %for.body.lr.ph ], [ %inc, %for.body ]
  %call.i30 = tail call ptr @object_dynamic_cast_assert(ptr noundef nonnull %call.i28, ptr noundef nonnull @.str.8, ptr noundef nonnull @.str.9, i32 noundef 77, ptr noundef nonnull @__func__.DEVICE) #9
  %call32 = tail call ptr @graphic_console_init(ptr noundef %call.i30, i32 noundef %i.032, ptr noundef nonnull @virtio_gpu_ops, ptr noundef nonnull %call.i28) #9
  %idxprom = sext i32 %i.032 to i64
  %arrayidx33 = getelementptr [16 x %struct.virtio_gpu_scanout], ptr %scanout, i64 0, i64 %idxprom
  store ptr %call32, ptr %arrayidx33, align 8
  %inc = add nuw i32 %i.032, 1
  %7 = load i32, ptr %conf, align 16
  %cmp30 = icmp ult i32 %inc, %7
  br i1 %cmp30, label %for.body, label %return, !llvm.loop !8

return:                                           ; preds = %for.body, %if.end9, %if.then3, %if.then
  %retval.0 = phi i1 [ false, %if.then ], [ false, %if.then3 ], [ true, %if.end9 ], [ true, %for.body ]
  ret i1 %retval.0
}